target datalayout = "e-m:e-p270:32:32-p271:32:32-p272:64:64-i64:64-i128:128-f80:128-n8:16:32:64-S128"
target triple = "x86_64-pc-linux-gnu"

@.str = private unnamed_addr constant [71 x i8] c"../openssl/providers/implementations/ciphers/cipher_aes_cbc_hmac_sha.c\00", align 1

; Function Attrs: nounwind uwtable
define internal ptr @aes_cbc_hmac_sha1_dupctx(ptr noundef %0) #0 {
  %2 = alloca ptr, align 8
  %3 = alloca ptr, align 8
  %4 = alloca ptr, align 8
  %5 = alloca i32, align 4
  store ptr %0, ptr %3, align 8, !tbaa !3
  call void @llvm.lifetime.start.p0(i64 8, ptr %4) #5
  %6 = load ptr, ptr %3, align 8, !tbaa !3
  store ptr %6, ptr %4, align 8, !tbaa !7
  %7 = call i32 @ossl_prov_is_running()
  %8 = icmp ne i32 %7, 0
  br i1 %8, label %10, label %9

9:                                                ; preds = %1
  store ptr null, ptr %2, align 8
  store i32 1, ptr %5, align 4
  br label %17

10:                                               ; preds = %1
  %11 = load ptr, ptr %4, align 8, !tbaa !7
  %12 = icmp eq ptr %11, null
  br i1 %12, label %13, label %14

13:                                               ; preds = %10
  store ptr null, ptr %2, align 8
  store i32 1, ptr %5, align 4
  br label %17

14:                                               ; preds = %10
  %15 = load ptr, ptr %4, align 8, !tbaa !7
  %16 = call noalias ptr @CRYPTO_memdup(ptr noundef %15, i64 noundef 792, ptr noundef @.str, i32 noundef 347)
  store ptr %16, ptr %2, align 8
  store i32 1, ptr %5, align 4
  br label %17

17:                                               ; preds = %14, %13, %9
  call void @llvm.lifetime.end.p0(i64 8, ptr %4) #5
  %18 = load ptr, ptr %2, align 8
  ret ptr %18
}