; Function Attrs: nounwind uwtable
define internal noalias ptr @aes_cbc_hmac_sha1_dupctx(ptr noundef %0) #0 {
  %2 = tail call i32 @ossl_prov_is_running() #4
  %.not = icmp eq i32 %2, 0
  %3 = icmp eq ptr %0, null
  %or.cond = or i1 %3, %.not
  br i1 %or.cond, label %6, label %4

4:                                                ; preds = %1
  %5 = tail call noalias ptr @CRYPTO_memdup(ptr noundef nonnull %0, i64 noundef 792, ptr noundef nonnull @.str, i32 noundef 347) #4
  br label %6

6:                                                ; preds = %1, %4
  %.0 = phi ptr [ %5, %4 ], [ null, %1 ]
  ret ptr %.0
}